target datalayout = "e-m:e-p270:32:32-p271:32:32-p272:64:64-i64:64-i128:128-f80:128-n8:16:32:64-S128"
target triple = "x86_64-pc-linux-gnu"

; Function Attrs: null_pointer_is_valid sspstrong uwtable
define i32 @dissect_mscldap_string(ptr noundef %0, ptr noundef %1, i32 noundef %2, i32 noundef %3, ptr noundef %4) #0 {
  %6 = alloca ptr, align 8
  %7 = alloca ptr, align 8
  %8 = alloca i32, align 4
  %9 = alloca i32, align 4
  %10 = alloca ptr, align 8
  %11 = alloca i32, align 4
  %12 = alloca ptr, align 8
  %13 = alloca i32, align 4
  store ptr %0, ptr %6, align 8
  store ptr %1, ptr %7, align 8
  store i32 %2, ptr %8, align 4
  store i32 %3, ptr %9, align 4
  store ptr %4, ptr %10, align 8
  call void @llvm.lifetime.start.p0(i64 4, ptr %11) #16
  call void @llvm.lifetime.start.p0(i64 8, ptr %12) #16
  call void @llvm.lifetime.start.p0(i64 4, ptr %13) #16
  %14 = load ptr, ptr %7, align 8
  %15 = load i32, ptr %8, align 4
  %16 = load i32, ptr %9, align 4
  %17 = call i32 @get_dns_name(ptr noundef %14, i32 noundef %15, i32 noundef %16, i32 noundef 0, ptr noundef %12, ptr noundef %13)
  store i32 %17, ptr %11, align 4
  %18 = load ptr, ptr %6, align 8
  %19 = load ptr, ptr %12, align 8
  %20 = load i32, ptr %13, align 4
  %21 = call ptr @get_utf_8_string(ptr noundef %18, ptr noundef %19, i32 noundef %20)
  %22 = load ptr, ptr %10, align 8
  store ptr %21, ptr %22, align 8
  %23 = load i32, ptr %8, align 4
  %24 = load i32, ptr %11, align 4
  %25 = add i32 %23, %24
  call void @llvm.lifetime.end.p0(i64 4, ptr %13) #16
  call void @llvm.lifetime.end.p0(i64 8, ptr %12) #16
  call void @llvm.lifetime.end.p0(i64 4, ptr %11) #16
  ret i32 %25
}