; Function Attrs: null_pointer_is_valid sspstrong uwtable
define i32 @dissect_mscldap_string(ptr noundef %0, ptr noundef %1, i32 noundef %2, i32 noundef %3, ptr noundef writeonly captures(none) initializes((0, 8)) %4) local_unnamed_addr #0 {
  %6 = alloca ptr, align 8
  %7 = alloca i32, align 4
  call void @llvm.lifetime.start.p0(i64 8, ptr nonnull %6) #14
  call void @llvm.lifetime.start.p0(i64 4, ptr nonnull %7) #14
  %8 = call i32 @get_dns_name(ptr noundef %1, i32 noundef %2, i32 noundef %3, i32 noundef 0, ptr noundef nonnull %6, ptr noundef nonnull %7)
  %9 = load ptr, ptr %6, align 8
  %10 = load i32, ptr %7, align 4
  %11 = call ptr @get_utf_8_string(ptr noundef %0, ptr noundef %9, i32 noundef %10)
  store ptr %11, ptr %4, align 8
  %12 = add i32 %8, %2
  call void @llvm.lifetime.end.p0(i64 4, ptr nonnull %7) #14
  call void @llvm.lifetime.end.p0(i64 8, ptr nonnull %6) #14
  ret i32 %12
}